; ModuleID = '7/313.c'
source_filename = "7/313.c"
target datalayout = "e-m:e-p270:32:32-p271:32:32-p272:64:64-i64:64-f80:128-n8:16:32:64-S128"
target triple = "x86_64-pc-linux-gnu"

@.str = private unnamed_addr constant [4 x i8] c"%s\0A\00", align 1
@.str.1 = private unnamed_addr constant [8 x i8] c"%s%s%s\0A\00", align 1

; Function Attrs: noinline nounwind uwtable
define dso_local i32 @main() #0 {
  %1 = alloca i32, align 4
  %2 = alloca i32, align 4
  %3 = alloca i32, align 4
  %4 = alloca i32, align 4
  %5 = alloca i32, align 4
  %6 = alloca [2 x i8*], align 16
  %7 = alloca [256 x i8], align 16
  %8 = alloca [256 x i8], align 16
  %9 = alloca [256 x i8], align 16
  %10 = alloca i32, align 4
  store i32 0, i32* %1, align 4
  store i32 0, i32* %10, align 4
  %11 = getelementptr inbounds [256 x i8], [256 x i8]* %7, i64 0, i64 0
  %12 = call i32 (i8*, ...) bitcast (i32 (...)* @gets to i32 (i8*, ...)*)(i8* %11)
  %13 = getelementptr inbounds [256 x i8], [256 x i8]* %8, i64 0, i64 0
  %14 = call i32 (i8*, ...) bitcast (i32 (...)* @gets to i32 (i8*, ...)*)(i8* %13)
  %15 = getelementptr inbounds [256 x i8], [256 x i8]* %9, i64 0, i64 0
  %16 = call i32 (i8*, ...) bitcast (i32 (...)* @gets to i32 (i8*, ...)*)(i8* %15)
  %17 = getelementptr inbounds [256 x i8], [256 x i8]* %7, i64 0, i64 0
  %18 = call i64 @strlen(i8* %17) #3
  %19 = trunc i64 %18 to i32
  store i32 %19, i32* %4, align 4
  %20 = getelementptr inbounds [256 x i8], [256 x i8]* %8, i64 0, i64 0
  %21 = call i64 @strlen(i8* %20) #3
  %22 = trunc i64 %21 to i32
  store i32 %22, i32* %5, align 4
  store i32 0, i32* %2, align 4
  br label %23

23:                                               ; preds = %71, %0
  %24 = load i32, i32* %2, align 4
  %25 = load i32, i32* %4, align 4
  %26 = load i32, i32* %5, align 4
  %27 = sub nsw i32 %25, %26
  %28 = add nsw i32 %27, 1
  %29 = icmp slt i32 %24, %28
  br i1 %29, label %30, label %74

30:                                               ; preds = %23
  store i32 0, i32* %3, align 4
  br label %31

31:                                               ; preds = %51, %30
  %32 = load i32, i32* %3, align 4
  %33 = load i32, i32* %5, align 4
  %34 = icmp slt i32 %32, %33
  br i1 %34, label %35, label %54

35:                                               ; preds = %31
  %36 = load i32, i32* %2, align 4
  %37 = load i32, i32* %3, align 4
  %38 = add nsw i32 %36, %37
  %39 = sext i32 %38 to i64
  %40 = getelementptr inbounds [256 x i8], [256 x i8]* %7, i64 0, i64 %39
  %41 = load i8, i8* %40, align 1
  %42 = sext i8 %41 to i32
  %43 = load i32, i32* %3, align 4
  %44 = sext i32 %43 to i64
  %45 = getelementptr inbounds [256 x i8], [256 x i8]* %8, i64 0, i64 %44
  %46 = load i8, i8* %45, align 1
  %47 = sext i8 %46 to i32
  %48 = icmp ne i32 %42, %47
  br i1 %48, label %49, label %50

49:                                               ; preds = %35
  br label %54

50:                                               ; preds = %35
  br label %51

51:                                               ; preds = %50
  %52 = load i32, i32* %3, align 4
  %53 = add nsw i32 %52, 1
  store i32 %53, i32* %3, align 4
  br label %31

54:                                               ; preds = %49, %31
  %55 = load i32, i32* %3, align 4
  %56 = load i32, i32* %5, align 4
  %57 = icmp eq i32 %55, %56
  br i1 %57, label %58, label %70

58:                                               ; preds = %54
  %59 = load i32, i32* %2, align 4
  %60 = load i32, i32* %3, align 4
  %61 = add nsw i32 %59, %60
  %62 = sext i32 %61 to i64
  %63 = getelementptr inbounds [256 x i8], [256 x i8]* %7, i64 0, i64 %62
  %64 = getelementptr inbounds [2 x i8*], [2 x i8*]* %6, i64 0, i64 1
  store i8* %63, i8** %64, align 8
  %65 = load i32, i32* %2, align 4
  %66 = sext i32 %65 to i64
  %67 = getelementptr inbounds [256 x i8], [256 x i8]* %7, i64 0, i64 %66
  store i8 0, i8* %67, align 1
  %68 = getelementptr inbounds [256 x i8], [256 x i8]* %7, i64 0, i64 0
  %69 = getelementptr inbounds [2 x i8*], [2 x i8*]* %6, i64 0, i64 0
  store i8* %68, i8** %69, align 16
  store i32 1, i32* %10, align 4
  br label %74

70:                                               ; preds = %54
  br label %71

71:                                               ; preds = %70
  %72 = load i32, i32* %2, align 4
  %73 = add nsw i32 %72, 1
  store i32 %73, i32* %2, align 4
  br label %23

74:                                               ; preds = %58, %23
  %75 = load i32, i32* %10, align 4
  %76 = icmp eq i32 %75, 0
  br i1 %76, label %77, label %80

77:                                               ; preds = %74
  %78 = getelementptr inbounds [256 x i8], [256 x i8]* %7, i64 0, i64 0
  %79 = call i32 (i8*, ...) @printf(i8* getelementptr inbounds ([4 x i8], [4 x i8]* @.str, i64 0, i64 0), i8* %78)
  br label %87

80:                                               ; preds = %74
  %81 = getelementptr inbounds [2 x i8*], [2 x i8*]* %6, i64 0, i64 0
  %82 = load i8*, i8** %81, align 16
  %83 = getelementptr inbounds [256 x i8], [256 x i8]* %9, i64 0, i64 0
  %84 = getelementptr inbounds [2 x i8*], [2 x i8*]* %6, i64 0, i64 1
  %85 = load i8*, i8** %84, align 8
  %86 = call i32 (i8*, ...) @printf(i8* getelementptr inbounds ([8 x i8], [8 x i8]* @.str.1, i64 0, i64 0), i8* %82, i8* %83, i8* %85)
  br label %87

87:                                               ; preds = %80, %77
  ret i32 0
}

declare dso_local i32 @gets(...) #1

; Function Attrs: nounwind readonly
declare dso_local i64 @strlen(i8*) #2

declare dso_local i32 @printf(i8*, ...) #1


!llvm.module.flags = !{!0}
!llvm.ident = !{!1}

!0 = !{i32 1, !"wchar_size", i32 4}
!1 = !{!"clang version 10.0.0-4ubuntu1 "}
